target datalayout = "e-m:e-p270:32:32-p271:32:32-p272:64:64-i64:64-i128:128-f80:128-n8:16:32:64-S128"
target triple = "x86_64-pc-linux-gnu"

%struct.linenoiseState = type { i32, i32, ptr, i64, ptr, ptr, i64, i64, i64, i64, i64, i64, i32 }
%struct.abuf = type { ptr, i32 }

@hintsCallback = internal global ptr null, align 8
@freeHintsCallback = internal global ptr null, align 8
@reverse_search_mode_enabled = internal global i32 0, align 4
@ignore_once_hint = internal global i32 0, align 4
@.str.1 = private unnamed_addr constant [12 x i8] c"\1B[%d;%d;49m\00", align 1
@.str.2 = private unnamed_addr constant [5 x i8] c"\1B[0m\00", align 1

; Function Attrs: nounwind uwtable
define internal void @abAppend(ptr noundef %0, ptr noundef %1, i32 noundef %2) #0 {
  %4 = alloca ptr, align 8
  %5 = alloca ptr, align 8
  %6 = alloca i32, align 4
  %7 = alloca ptr, align 8
  %8 = alloca i32, align 4
  store ptr %0, ptr %4, align 8, !tbaa !21
  store ptr %1, ptr %5, align 8, !tbaa !12
  store i32 %2, ptr %6, align 4, !tbaa !4
  call void @llvm.lifetime.start.p0(i64 8, ptr %7) #12
  %9 = load ptr, ptr %4, align 8, !tbaa !21
  %10 = getelementptr inbounds nuw %struct.abuf, ptr %9, i32 0, i32 0
  %11 = load ptr, ptr %10, align 8, !tbaa !30
  %12 = load ptr, ptr %4, align 8, !tbaa !21
  %13 = getelementptr inbounds nuw %struct.abuf, ptr %12, i32 0, i32 1
  %14 = load i32, ptr %13, align 8, !tbaa !32
  %15 = load i32, ptr %6, align 4, !tbaa !4
  %16 = add nsw i32 %14, %15
  %17 = sext i32 %16 to i64
  %18 = call ptr @realloc(ptr noundef %11, i64 noundef %17) #15
  store ptr %18, ptr %7, align 8, !tbaa !12
  %19 = load ptr, ptr %7, align 8, !tbaa !12
  %20 = icmp eq ptr %19, null
  br i1 %20, label %21, label %22

21:                                               ; preds = %3
  store i32 1, ptr %8, align 4
  br label %40

22:                                               ; preds = %3
  %23 = load ptr, ptr %7, align 8, !tbaa !12
  %24 = load ptr, ptr %4, align 8, !tbaa !21
  %25 = getelementptr inbounds nuw %struct.abuf, ptr %24, i32 0, i32 1
  %26 = load i32, ptr %25, align 8, !tbaa !32
  %27 = sext i32 %26 to i64
  %28 = getelementptr inbounds i8, ptr %23, i64 %27
  %29 = load ptr, ptr %5, align 8, !tbaa !12
  %30 = load i32, ptr %6, align 4, !tbaa !4
  %31 = sext i32 %30 to i64
  call void @llvm.memcpy.p0.p0.i64(ptr align 1 %28, ptr align 1 %29, i64 %31, i1 false)
  %32 = load ptr, ptr %7, align 8, !tbaa !12
  %33 = load ptr, ptr %4, align 8, !tbaa !21
  %34 = getelementptr inbounds nuw %struct.abuf, ptr %33, i32 0, i32 0
  store ptr %32, ptr %34, align 8, !tbaa !30
  %35 = load i32, ptr %6, align 4, !tbaa !4
  %36 = load ptr, ptr %4, align 8, !tbaa !21
  %37 = getelementptr inbounds nuw %struct.abuf, ptr %36, i32 0, i32 1
  %38 = load i32, ptr %37, align 8, !tbaa !32
  %39 = add nsw i32 %38, %35
  store i32 %39, ptr %37, align 8, !tbaa !32
  store i32 0, ptr %8, align 4
  br label %40

40:                                               ; preds = %22, %21
  call void @llvm.lifetime.end.p0(i64 8, ptr %7) #12
  %41 = load i32, ptr %8, align 4
  switch i32 %41, label %43 [
    i32 0, label %42
    i32 1, label %42
  ]

42:                                               ; preds = %40, %40
  ret void

43:                                               ; preds = %40
  unreachable
}

; Function Attrs: nounwind uwtable
define dso_local void @refreshShowHints(ptr noundef %0, ptr noundef %1, i32 noundef %2) #0 {
  %4 = alloca ptr, align 8
  %5 = alloca ptr, align 8
  %6 = alloca i32, align 4
  %7 = alloca [64 x i8], align 16
  %8 = alloca i32, align 4
  %9 = alloca i32, align 4
  %10 = alloca i32, align 4
  %11 = alloca ptr, align 8
  %12 = alloca i32, align 4
  %13 = alloca i32, align 4
  store ptr %0, ptr %4, align 8, !tbaa !21
  store ptr %1, ptr %5, align 8, !tbaa !23
  store i32 %2, ptr %6, align 4, !tbaa !4
  call void @llvm.lifetime.start.p0(i64 64, ptr %7) #12
  %14 = load i32, ptr @reverse_search_mode_enabled, align 4, !tbaa !4
  %15 = icmp ne i32 %14, 0
  br i1 %15, label %19, label %16

16:                                               ; preds = %3
  %17 = load i32, ptr @ignore_once_hint, align 4, !tbaa !4
  %18 = icmp ne i32 %17, 0
  br i1 %18, label %19, label %20

19:                                               ; preds = %16, %3
  store i32 0, ptr @ignore_once_hint, align 4, !tbaa !4
  store i32 1, ptr %8, align 4
  br label %107

20:                                               ; preds = %16
  %21 = load ptr, ptr @hintsCallback, align 8, !tbaa !8
  %22 = icmp ne ptr %21, null
  br i1 %22, label %23, label %106

23:                                               ; preds = %20
  %24 = load i32, ptr %6, align 4, !tbaa !4
  %25 = sext i32 %24 to i64
  %26 = load ptr, ptr %5, align 8, !tbaa !23
  %27 = getelementptr inbounds nuw %struct.linenoiseState, ptr %26, i32 0, i32 9
  %28 = load i64, ptr %27, align 8, !tbaa !25
  %29 = add i64 %25, %28
  %30 = load ptr, ptr %5, align 8, !tbaa !23
  %31 = getelementptr inbounds nuw %struct.linenoiseState, ptr %30, i32 0, i32 10
  %32 = load i64, ptr %31, align 8, !tbaa !27
  %33 = icmp ult i64 %29, %32
  br i1 %33, label %34, label %106

34:                                               ; preds = %23
  call void @llvm.lifetime.start.p0(i64 4, ptr %9) #12
  store i32 -1, ptr %9, align 4, !tbaa !4
  call void @llvm.lifetime.start.p0(i64 4, ptr %10) #12
  store i32 0, ptr %10, align 4, !tbaa !4
  call void @llvm.lifetime.start.p0(i64 8, ptr %11) #12
  %35 = load ptr, ptr @hintsCallback, align 8, !tbaa !8
  %36 = load ptr, ptr %5, align 8, !tbaa !23
  %37 = getelementptr inbounds nuw %struct.linenoiseState, ptr %36, i32 0, i32 2
  %38 = load ptr, ptr %37, align 8, !tbaa !28
  %39 = call ptr %35(ptr noundef %38, ptr noundef %9, ptr noundef %10)
  store ptr %39, ptr %11, align 8, !tbaa !12
  %40 = load ptr, ptr %11, align 8, !tbaa !12
  %41 = icmp ne ptr %40, null
  br i1 %41, label %42, label %105

42:                                               ; preds = %34
  call void @llvm.lifetime.start.p0(i64 4, ptr %12) #12
  %43 = load ptr, ptr %11, align 8, !tbaa !12
  %44 = call i64 @strlen(ptr noundef %43) #13
  %45 = trunc i64 %44 to i32
  store i32 %45, ptr %12, align 4, !tbaa !4
  call void @llvm.lifetime.start.p0(i64 4, ptr %13) #12
  %46 = load ptr, ptr %5, align 8, !tbaa !23
  %47 = getelementptr inbounds nuw %struct.linenoiseState, ptr %46, i32 0, i32 10
  %48 = load i64, ptr %47, align 8, !tbaa !27
  %49 = load i32, ptr %6, align 4, !tbaa !4
  %50 = sext i32 %49 to i64
  %51 = load ptr, ptr %5, align 8, !tbaa !23
  %52 = getelementptr inbounds nuw %struct.linenoiseState, ptr %51, i32 0, i32 9
  %53 = load i64, ptr %52, align 8, !tbaa !25
  %54 = add i64 %50, %53
  %55 = sub i64 %48, %54
  %56 = trunc i64 %55 to i32
  store i32 %56, ptr %13, align 4, !tbaa !4
  %57 = load i32, ptr %12, align 4, !tbaa !4
  %58 = load i32, ptr %13, align 4, !tbaa !4
  %59 = icmp sgt i32 %57, %58
  br i1 %59, label %60, label %62

60:                                               ; preds = %42
  %61 = load i32, ptr %13, align 4, !tbaa !4
  store i32 %61, ptr %12, align 4, !tbaa !4
  br label %62

62:                                               ; preds = %60, %42
  %63 = load i32, ptr %10, align 4, !tbaa !4
  %64 = icmp eq i32 %63, 1
  br i1 %64, label %65, label %69

65:                                               ; preds = %62
  %66 = load i32, ptr %9, align 4, !tbaa !4
  %67 = icmp eq i32 %66, -1
  br i1 %67, label %68, label %69

68:                                               ; preds = %65
  store i32 37, ptr %9, align 4, !tbaa !4
  br label %69

69:                                               ; preds = %68, %65, %62
  %70 = load i32, ptr %9, align 4, !tbaa !4
  %71 = icmp ne i32 %70, -1
  br i1 %71, label %75, label %72

72:                                               ; preds = %69
  %73 = load i32, ptr %10, align 4, !tbaa !4
  %74 = icmp ne i32 %73, 0
  br i1 %74, label %75, label %80

75:                                               ; preds = %72, %69
  %76 = getelementptr inbounds [64 x i8], ptr %7, i64 0, i64 0
  %77 = load i32, ptr %10, align 4, !tbaa !4
  %78 = load i32, ptr %9, align 4, !tbaa !4
  %79 = call i32 (ptr, i64, ptr, ...) @snprintf(ptr noundef %76, i64 noundef 64, ptr noundef @.str.1, i32 noundef %77, i32 noundef %78) #12
  br label %82

80:                                               ; preds = %72
  %81 = getelementptr inbounds [64 x i8], ptr %7, i64 0, i64 0
  store i8 0, ptr %81, align 16, !tbaa !29
  br label %82

82:                                               ; preds = %80, %75
  %83 = load ptr, ptr %4, align 8, !tbaa !21
  %84 = getelementptr inbounds [64 x i8], ptr %7, i64 0, i64 0
  %85 = getelementptr inbounds [64 x i8], ptr %7, i64 0, i64 0
  %86 = call i64 @strlen(ptr noundef %85) #13
  %87 = trunc i64 %86 to i32
  call void @abAppend(ptr noundef %83, ptr noundef %84, i32 noundef %87)
  %88 = load ptr, ptr %4, align 8, !tbaa !21
  %89 = load ptr, ptr %11, align 8, !tbaa !12
  %90 = load i32, ptr %12, align 4, !tbaa !4
  call void @abAppend(ptr noundef %88, ptr noundef %89, i32 noundef %90)
  %91 = load i32, ptr %9, align 4, !tbaa !4
  %92 = icmp ne i32 %91, -1
  br i1 %92, label %96, label %93

93:                                               ; preds = %82
  %94 = load i32, ptr %10, align 4, !tbaa !4
  %95 = icmp ne i32 %94, 0
  br i1 %95, label %96, label %98

96:                                               ; preds = %93, %82
  %97 = load ptr, ptr %4, align 8, !tbaa !21
  call void @abAppend(ptr noundef %97, ptr noundef @.str.2, i32 noundef 4)
  br label %98

98:                                               ; preds = %96, %93
  %99 = load ptr, ptr @freeHintsCallback, align 8, !tbaa !8
  %100 = icmp ne ptr %99, null
  br i1 %100, label %101, label %104

101:                                              ; preds = %98
  %102 = load ptr, ptr @freeHintsCallback, align 8, !tbaa !8
  %103 = load ptr, ptr %11, align 8, !tbaa !12
  call void %102(ptr noundef %103)
  br label %104

104:                                              ; preds = %101, %98
  call void @llvm.lifetime.end.p0(i64 4, ptr %13) #12
  call void @llvm.lifetime.end.p0(i64 4, ptr %12) #12
  br label %105

105:                                              ; preds = %104, %34
  call void @llvm.lifetime.end.p0(i64 8, ptr %11) #12
  call void @llvm.lifetime.end.p0(i64 4, ptr %10) #12
  call void @llvm.lifetime.end.p0(i64 4, ptr %9) #12
  br label %106

106:                                              ; preds = %105, %23, %20
  store i32 0, ptr %8, align 4
  br label %107

107:                                              ; preds = %106, %19
  call void @llvm.lifetime.end.p0(i64 64, ptr %7) #12
  %108 = load i32, ptr %8, align 4
  switch i32 %108, label %110 [
    i32 0, label %109
    i32 1, label %109
  ]

109:                                              ; preds = %107, %107
  ret void

110:                                              ; preds = %107
  unreachable
}