; Function Attrs: nounwind uwtable
define dso_local void @refreshShowHints(ptr noundef captures(none) %0, ptr noundef readonly captures(none) %1, i32 noundef %2) local_unnamed_addr #10 {
  %4 = alloca [64 x i8], align 16
  %5 = alloca i32, align 4
  %6 = alloca i32, align 4
  call void @llvm.lifetime.start.p0(i64 64, ptr nonnull %4) #24
  %.b = load i1, ptr @reverse_search_mode_enabled, align 4
  %.b28 = load i1, ptr @ignore_once_hint, align 4
  %or.cond = select i1 %.b, i1 true, i1 %.b28
  br i1 %or.cond, label %7, label %8

7:                                                ; preds = %3
  store i1 false, ptr @ignore_once_hint, align 4
  br label %88

8:                                                ; preds = %3
  %9 = load ptr, ptr @hintsCallback, align 8, !tbaa !8
  %.not = icmp eq ptr %9, null
  br i1 %.not, label %88, label %10

10:                                               ; preds = %8
  %11 = sext i32 %2 to i64
  %12 = getelementptr inbounds nuw i8, ptr %1, i64 64
  %13 = load i64, ptr %12, align 8, !tbaa !17
  %14 = add i64 %13, %11
  %15 = getelementptr inbounds nuw i8, ptr %1, i64 72
  %16 = load i64, ptr %15, align 8, !tbaa !19
  %17 = icmp ult i64 %14, %16
  br i1 %17, label %18, label %88

18:                                               ; preds = %10
  call void @llvm.lifetime.start.p0(i64 4, ptr nonnull %5) #24
  store i32 -1, ptr %5, align 4, !tbaa !4
  call void @llvm.lifetime.start.p0(i64 4, ptr nonnull %6) #24
  store i32 0, ptr %6, align 4, !tbaa !4
  %19 = getelementptr inbounds nuw i8, ptr %1, i64 8
  %20 = load ptr, ptr %19, align 8, !tbaa !20
  %21 = call ptr %9(ptr noundef %20, ptr noundef nonnull %5, ptr noundef nonnull %6) #24
  %.not29 = icmp eq ptr %21, null
  br i1 %.not29, label %87, label %22

22:                                               ; preds = %18
  %23 = call i64 @strlen(ptr noundef nonnull dereferenceable(1) %21) #25
  %24 = trunc i64 %23 to i32
  %25 = load i64, ptr %15, align 8, !tbaa !19
  %26 = load i64, ptr %12, align 8, !tbaa !17
  %27 = add i64 %26, %11
  %28 = sub i64 %25, %27
  %29 = trunc i64 %28 to i32
  %spec.select = call i32 @llvm.smin.i32(i32 %24, i32 %29)
  %30 = load i32, ptr %6, align 4, !tbaa !4
  %31 = icmp eq i32 %30, 1
  %32 = load i32, ptr %5, align 4
  %33 = icmp eq i32 %32, -1
  %or.cond3 = select i1 %31, i1 %33, i1 false
  br i1 %or.cond3, label %.thread, label %34

.thread:                                          ; preds = %22
  store i32 37, ptr %5, align 4, !tbaa !4
  br label %37

34:                                               ; preds = %22
  %35 = icmp ne i32 %32, -1
  %36 = icmp ne i32 %30, 0
  %or.cond5 = or i1 %36, %35
  br i1 %or.cond5, label %37, label %40

37:                                               ; preds = %.thread, %34
  %38 = phi i32 [ 37, %.thread ], [ %32, %34 ]
  %39 = call i32 (ptr, i64, ptr, ...) @snprintf(ptr noundef nonnull dereferenceable(1) %4, i64 noundef 64, ptr noundef nonnull @.str.1, i32 noundef %30, i32 noundef %38) #24
  br label %41

40:                                               ; preds = %34
  store i8 0, ptr %4, align 16, !tbaa !21
  br label %41

41:                                               ; preds = %40, %37
  %42 = call i64 @strlen(ptr noundef nonnull dereferenceable(1) %4) #25
  %43 = trunc i64 %42 to i32
  %44 = load ptr, ptr %0, align 8, !tbaa !22
  %45 = getelementptr inbounds nuw i8, ptr %0, i64 8
  %46 = load i32, ptr %45, align 8, !tbaa !24
  %47 = add nsw i32 %46, %43
  %48 = sext i32 %47 to i64
  %49 = call ptr @realloc(ptr noundef %44, i64 noundef %48) #27
  %50 = icmp eq ptr %49, null
  br i1 %50, label %.abAppend.exit_crit_edge, label %51

.abAppend.exit_crit_edge:                         ; preds = %41
  %.pre = load ptr, ptr %0, align 8, !tbaa !22
  %.pre36 = load i32, ptr %45, align 8, !tbaa !24
  br label %abAppend.exit

51:                                               ; preds = %41
  %52 = load i32, ptr %45, align 8, !tbaa !24
  %53 = sext i32 %52 to i64
  %54 = getelementptr inbounds i8, ptr %49, i64 %53
  %sext = shl i64 %42, 32
  %55 = ashr exact i64 %sext, 32
  call void @llvm.memcpy.p0.p0.i64(ptr nonnull align 1 %54, ptr nonnull readonly align 16 %4, i64 %55, i1 false)
  store ptr %49, ptr %0, align 8, !tbaa !22
  %56 = add nsw i32 %52, %43
  store i32 %56, ptr %45, align 8, !tbaa !24
  br label %abAppend.exit

abAppend.exit:                                    ; preds = %.abAppend.exit_crit_edge, %51
  %57 = phi i32 [ %.pre36, %.abAppend.exit_crit_edge ], [ %56, %51 ]
  %58 = phi ptr [ %.pre, %.abAppend.exit_crit_edge ], [ %49, %51 ]
  %59 = add nsw i32 %57, %spec.select
  %60 = sext i32 %59 to i64
  %61 = call ptr @realloc(ptr noundef %58, i64 noundef %60) #27
  %62 = icmp eq ptr %61, null
  br i1 %62, label %abAppend.exit31, label %63

63:                                               ; preds = %abAppend.exit
  %64 = load i32, ptr %45, align 8, !tbaa !24
  %65 = sext i32 %64 to i64
  %66 = getelementptr inbounds i8, ptr %61, i64 %65
  %67 = sext i32 %spec.select to i64
  call void @llvm.memcpy.p0.p0.i64(ptr nonnull align 1 %66, ptr nonnull readonly align 1 %21, i64 %67, i1 false)
  store ptr %61, ptr %0, align 8, !tbaa !22
  %68 = add nsw i32 %64, %spec.select
  store i32 %68, ptr %45, align 8, !tbaa !24
  br label %abAppend.exit31

abAppend.exit31:                                  ; preds = %abAppend.exit, %63
  %69 = load i32, ptr %5, align 4, !tbaa !4
  %70 = icmp ne i32 %69, -1
  %71 = load i32, ptr %6, align 4
  %72 = icmp ne i32 %71, 0
  %or.cond7 = select i1 %70, i1 true, i1 %72
  br i1 %or.cond7, label %73, label %abAppend.exit32

73:                                               ; preds = %abAppend.exit31
  %74 = load ptr, ptr %0, align 8, !tbaa !22
  %75 = load i32, ptr %45, align 8, !tbaa !24
  %76 = add nsw i32 %75, 4
  %77 = sext i32 %76 to i64
  %78 = call ptr @realloc(ptr noundef %74, i64 noundef %77) #27
  %79 = icmp eq ptr %78, null
  br i1 %79, label %abAppend.exit32, label %80

80:                                               ; preds = %73
  %81 = load i32, ptr %45, align 8, !tbaa !24
  %82 = sext i32 %81 to i64
  %83 = getelementptr inbounds i8, ptr %78, i64 %82
  store i32 1831885595, ptr %83, align 1
  store ptr %78, ptr %0, align 8, !tbaa !22
  %84 = add nsw i32 %81, 4
  store i32 %84, ptr %45, align 8, !tbaa !24
  br label %abAppend.exit32

abAppend.exit32:                                  ; preds = %80, %73, %abAppend.exit31
  %85 = load ptr, ptr @freeHintsCallback, align 8, !tbaa !8
  %.not30 = icmp eq ptr %85, null
  br i1 %.not30, label %87, label %86

86:                                               ; preds = %abAppend.exit32
  call void %85(ptr noundef nonnull %21) #24
  br label %87

87:                                               ; preds = %abAppend.exit32, %86, %18
  call void @llvm.lifetime.end.p0(i64 4, ptr nonnull %6) #24
  call void @llvm.lifetime.end.p0(i64 4, ptr nonnull %5) #24
  br label %88

88:                                               ; preds = %8, %10, %87, %7
  call void @llvm.lifetime.end.p0(i64 64, ptr nonnull %4) #24
  ret void
}